target datalayout = "e-m:e-p270:32:32-p271:32:32-p272:64:64-i64:64-i128:128-f80:128-n8:16:32:64-S128"
target triple = "x86_64-pc-linux-gnu"

@duckdb_je_malloc_init_state = global i32 3, align 4
@duckdb_je_JE_MALLOC_CONF_BUFFER = global [200 x i8] zeroinitializer, align 16
@.str.78 = private unnamed_addr constant [110 x i8] c"oversize_threshold:268435456,dirty_decay_ms:%llu,muzzy_decay_ms:%llu,narenas:%llu,max_background_threads:%llu\00", align 1
@duckdb_je_malloc_conf = weak global ptr null, align 8

; Function Attrs: alwaysinline nounwind uwtable
define internal zeroext i1 @malloc_initialized() #4 {
  %1 = load i32, ptr @duckdb_je_malloc_init_state, align 4, !tbaa !13
  %2 = icmp eq i32 %1, 0
  ret i1 %2
}

; Function Attrs: alwaysinline nounwind uwtable
define internal zeroext i1 @malloc_init() #4 {
  %1 = alloca i1, align 1
  %2 = call zeroext i1 @malloc_initialized()
  %3 = xor i1 %2, true
  %4 = xor i1 %3, true
  %5 = xor i1 %4, true
  %6 = zext i1 %5 to i32
  %7 = sext i32 %6 to i64
  %8 = call i64 @llvm.expect.i64(i64 %7, i64 0)
  %9 = icmp ne i64 %8, 0
  br i1 %9, label %10, label %13

10:                                               ; preds = %0
  %11 = call zeroext i1 @malloc_init_hard()
  br i1 %11, label %12, label %13

12:                                               ; preds = %10
  store i1 true, ptr %1, align 1
  br label %14

13:                                               ; preds = %10, %0
  store i1 false, ptr %1, align 1
  br label %14

14:                                               ; preds = %13, %12
  %15 = load i1, ptr %1, align 1
  ret i1 %15
}

; Function Attrs: nounwind uwtable
define internal i32 @malloc_ncpus() #0 {
  %1 = alloca i64, align 8
  call void @llvm.lifetime.start.p0(i64 8, ptr %1) #19
  %2 = call i64 @sysconf(i32 noundef 84) #19
  store i64 %2, ptr %1, align 8, !tbaa !7
  %3 = load i64, ptr %1, align 8, !tbaa !7
  %4 = icmp eq i64 %3, -1
  br i1 %4, label %5, label %6

5:                                                ; preds = %0
  br label %9

6:                                                ; preds = %0
  %7 = load i64, ptr %1, align 8, !tbaa !7
  %8 = trunc i64 %7 to i32
  br label %9

9:                                                ; preds = %6, %5
  %10 = phi i32 [ 1, %5 ], [ %8, %6 ]
  call void @llvm.lifetime.end.p0(i64 8, ptr %1) #19
  ret i32 %10
}

; Function Attrs: nounwind uwtable
define internal void @jemalloc_constructor() #0 {
  %1 = alloca i64, align 8
  %2 = alloca i64, align 8
  %3 = alloca i64, align 8
  %4 = alloca i64, align 8
  call void @llvm.lifetime.start.p0(i64 8, ptr %1) #19
  %5 = call i32 @malloc_ncpus()
  %6 = zext i32 %5 to i64
  store i64 %6, ptr %1, align 8, !tbaa !149
  %7 = load i64, ptr %1, align 8, !tbaa !149
  %8 = icmp eq i64 %7, 0
  br i1 %8, label %9, label %12

9:                                                ; preds = %0
  %10 = call i32 (...) @duckdb_malloc_ncpus()
  %11 = zext i32 %10 to i64
  store i64 %11, ptr %1, align 8, !tbaa !149
  br label %12

12:                                               ; preds = %9, %0
  call void @llvm.lifetime.start.p0(i64 8, ptr %2) #19
  %13 = load i64, ptr %1, align 8, !tbaa !149
  %14 = udiv i64 %13, 2
  store i64 %14, ptr %2, align 8, !tbaa !149
  %15 = load i64, ptr %2, align 8, !tbaa !149
  %16 = icmp eq i64 %15, 0
  br i1 %16, label %17, label %18

17:                                               ; preds = %12
  store i64 1, ptr %2, align 8, !tbaa !149
  br label %18

18:                                               ; preds = %17, %12
  call void @llvm.lifetime.start.p0(i64 8, ptr %3) #19
  %19 = load i64, ptr %1, align 8, !tbaa !149
  %20 = udiv i64 %19, 16
  store i64 %20, ptr %3, align 8, !tbaa !149
  %21 = load i64, ptr %3, align 8, !tbaa !149
  %22 = icmp eq i64 %21, 0
  br i1 %22, label %23, label %24

23:                                               ; preds = %18
  store i64 1, ptr %3, align 8, !tbaa !149
  br label %24

24:                                               ; preds = %23, %18
  call void @llvm.lifetime.start.p0(i64 8, ptr %4) #19
  store i64 5000, ptr %4, align 8, !tbaa !149
  %25 = load i64, ptr %4, align 8, !tbaa !149
  %26 = load i64, ptr %4, align 8, !tbaa !149
  %27 = load i64, ptr %2, align 8, !tbaa !149
  %28 = load i64, ptr %3, align 8, !tbaa !149
  %29 = call i32 (ptr, i64, ptr, ...) @snprintf(ptr noundef @duckdb_je_JE_MALLOC_CONF_BUFFER, i64 noundef 200, ptr noundef @.str.78, i64 noundef %25, i64 noundef %26, i64 noundef %27, i64 noundef %28) #19
  store ptr @duckdb_je_JE_MALLOC_CONF_BUFFER, ptr @duckdb_je_malloc_conf, align 8, !tbaa !126
  %30 = call zeroext i1 @malloc_init()
  call void @llvm.lifetime.end.p0(i64 8, ptr %4) #19
  call void @llvm.lifetime.end.p0(i64 8, ptr %3) #19
  call void @llvm.lifetime.end.p0(i64 8, ptr %2) #19
  call void @llvm.lifetime.end.p0(i64 8, ptr %1) #19
  ret void
}