; Function Attrs: nounwind uwtable
define internal void @jemalloc_constructor() #2 {
  %1 = tail call i64 @sysconf(i32 noundef 84) #21
  %2 = icmp eq i64 %1, -1
  %3 = trunc i64 %1 to i32
  %4 = select i1 %2, i32 1, i32 %3
  %5 = icmp eq i32 %4, 0
  br i1 %5, label %6, label %8

6:                                                ; preds = %0
  %7 = tail call i32 (...) @duckdb_malloc_ncpus() #21
  br label %8

8:                                                ; preds = %6, %0
  %.0.in = phi i32 [ %7, %6 ], [ %4, %0 ]
  %.0 = zext i32 %.0.in to i64
  %9 = lshr i64 %.0, 1
  %10 = icmp ult i32 %.0.in, 2
  %spec.store.select = select i1 %10, i64 1, i64 %9
  %11 = lshr i64 %.0, 4
  %12 = icmp ult i32 %.0.in, 16
  %spec.store.select1 = select i1 %12, i64 1, i64 %11
  %13 = tail call i32 (ptr, i64, ptr, ...) @snprintf(ptr noundef nonnull dereferenceable(1) @duckdb_je_JE_MALLOC_CONF_BUFFER, i64 noundef 200, ptr noundef nonnull @.str.78, i64 noundef 5000, i64 noundef 5000, i64 noundef %spec.store.select, i64 noundef %spec.store.select1) #21
  store ptr @duckdb_je_JE_MALLOC_CONF_BUFFER, ptr @duckdb_je_malloc_conf, align 8, !tbaa !197
  %14 = load i32, ptr @duckdb_je_malloc_init_state, align 4, !tbaa !3
  %15 = icmp eq i32 %14, 0
  br i1 %15, label %malloc_init.exit, label %16, !prof !9

16:                                               ; preds = %8
  %17 = tail call fastcc zeroext i1 @malloc_init_hard()
  br label %malloc_init.exit

malloc_init.exit:                                 ; preds = %16, %8
  ret void
}